target datalayout = "e-m:e-p270:32:32-p271:32:32-p272:64:64-i64:64-i128:128-f80:128-n8:16:32:64-S128"
target triple = "x86_64-pc-linux-gnu"

%"class.llvm::SmallVectorBase" = type { ptr, i32, i32 }
%"class.llvm::InsertPointAnalysis" = type { ptr, %"class.llvm::SmallVector.0" }
%"class.llvm::SmallVector.0" = type { %"class.llvm::SmallVectorImpl.1", %"struct.llvm::SmallVectorStorage.4" }
%"class.llvm::SmallVectorImpl.1" = type { %"class.llvm::SmallVectorTemplateBase.2" }
%"class.llvm::SmallVectorTemplateBase.2" = type { %"class.llvm::SmallVectorTemplateCommon.3" }
%"class.llvm::SmallVectorTemplateCommon.3" = type { %"class.llvm::SmallVectorBase" }
%"struct.llvm::SmallVectorStorage.4" = type { [128 x i8] }
%"class.llvm::SlotIndex" = type { %"class.llvm::PointerIntPair" }
%"class.llvm::PointerIntPair" = type { %"struct.llvm::detail::PunnedPointer" }
%"struct.llvm::detail::PunnedPointer" = type { [8 x i8] }
%"class.llvm::SmallVector.23" = type { %"class.llvm::SmallVectorImpl.24", %"struct.llvm::SmallVectorStorage.27" }
%"class.llvm::SmallVectorImpl.24" = type { %"class.llvm::SmallVectorTemplateBase.25" }
%"class.llvm::SmallVectorTemplateBase.25" = type { %"class.llvm::SmallVectorTemplateCommon.26" }
%"class.llvm::SmallVectorTemplateCommon.26" = type { %"class.llvm::SmallVectorBase" }
%"struct.llvm::SmallVectorStorage.27" = type { [64 x i8] }
%"class.llvm::SplitAnalysis" = type <{ ptr, ptr, ptr, ptr, ptr, ptr, %"class.llvm::InsertPointAnalysis", %"class.llvm::SmallVector.23", %"class.llvm::SmallVector.102", i32, [4 x i8], %"class.llvm::BitVector", i32, i8, [3 x i8] }>
%"class.llvm::SmallVector.102" = type { %"class.llvm::SmallVectorImpl.103", %"struct.llvm::SmallVectorStorage.106" }
%"class.llvm::SmallVectorImpl.103" = type { %"class.llvm::SmallVectorTemplateBase.104" }
%"class.llvm::SmallVectorTemplateBase.104" = type { %"class.llvm::SmallVectorTemplateCommon.105" }
%"class.llvm::SmallVectorTemplateCommon.105" = type { %"class.llvm::SmallVectorBase" }
%"struct.llvm::SmallVectorStorage.106" = type { [320 x i8] }
%"class.llvm::BitVector" = type <{ %"class.llvm::SmallVector.107", i32, [4 x i8] }>
%"class.llvm::SmallVector.107" = type { %"class.llvm::SmallVectorImpl.108", %"struct.llvm::SmallVectorStorage.111" }
%"class.llvm::SmallVectorImpl.108" = type { %"class.llvm::SmallVectorTemplateBase.109" }
%"class.llvm::SmallVectorTemplateBase.109" = type { %"class.llvm::SmallVectorTemplateCommon.110" }
%"class.llvm::SmallVectorTemplateCommon.110" = type { %"class.llvm::SmallVectorBase" }
%"struct.llvm::SmallVectorStorage.111" = type { [48 x i8] }
%"struct.llvm::SplitAnalysis::BlockInfo" = type <{ ptr, %"class.llvm::SlotIndex", %"class.llvm::SlotIndex", %"class.llvm::SlotIndex", i8, i8, [6 x i8] }>

; Function Attrs: mustprogress nounwind uwtable
define linkonce_odr hidden void @_ZN4llvm23SmallVectorTemplateBaseImLb1EE13destroy_rangeEPmS2_(ptr noundef %0, ptr noundef %1) #1 comdat align 2 {
  %3 = alloca ptr, align 8
  %4 = alloca ptr, align 8
  store ptr %0, ptr %3, align 8
  store ptr %1, ptr %4, align 8
  ret void
}

; Function Attrs: mustprogress nounwind uwtable
define linkonce_odr hidden noundef ptr @_ZN4llvm25SmallVectorTemplateCommonImvE3endEv(ptr noundef nonnull align 8 dereferenceable(16) %0) #1 comdat align 2 {
  %2 = alloca ptr, align 8
  store ptr %0, ptr %2, align 8
  %3 = load ptr, ptr %2, align 8
  %4 = call noundef ptr @_ZN4llvm25SmallVectorTemplateCommonImvE5beginEv(ptr noundef nonnull align 8 dereferenceable(16) %3)
  %5 = call noundef i64 @_ZNK4llvm15SmallVectorBaseIjE4sizeEv(ptr noundef nonnull align 8 dereferenceable(16) %3)
  %6 = getelementptr inbounds i64, ptr %4, i64 %5
  ret ptr %6
}

; Function Attrs: mustprogress nounwind uwtable
define linkonce_odr hidden noundef ptr @_ZN4llvm25SmallVectorTemplateCommonImvE5beginEv(ptr noundef nonnull align 8 dereferenceable(16) %0) #1 comdat align 2 {
  %2 = alloca ptr, align 8
  store ptr %0, ptr %2, align 8
  %3 = load ptr, ptr %2, align 8
  %4 = getelementptr inbounds nuw %"class.llvm::SmallVectorBase", ptr %3, i32 0, i32 0
  %5 = load ptr, ptr %4, align 8
  ret ptr %5
}

; Function Attrs: mustprogress nounwind uwtable
define linkonce_odr hidden void @_ZN4llvm15SmallVectorImplImE5clearEv(ptr noundef nonnull align 8 dereferenceable(16) %0) #1 comdat align 2 {
  %2 = alloca ptr, align 8
  store ptr %0, ptr %2, align 8
  %3 = load ptr, ptr %2, align 8
  %4 = call noundef ptr @_ZN4llvm25SmallVectorTemplateCommonImvE5beginEv(ptr noundef nonnull align 8 dereferenceable(16) %3)
  %5 = call noundef ptr @_ZN4llvm25SmallVectorTemplateCommonImvE3endEv(ptr noundef nonnull align 8 dereferenceable(16) %3)
  call void @_ZN4llvm23SmallVectorTemplateBaseImLb1EE13destroy_rangeEPmS2_(ptr noundef %4, ptr noundef %5)
  %6 = getelementptr inbounds nuw %"class.llvm::SmallVectorBase", ptr %3, i32 0, i32 1
  store i32 0, ptr %6, align 8
  ret void
}

; Function Attrs: mustprogress nounwind uwtable
define linkonce_odr hidden void @_ZN4llvm23SmallVectorTemplateBaseINS_13SplitAnalysis9BlockInfoELb1EE13destroy_rangeEPS2_S4_(ptr noundef %0, ptr noundef %1) #1 comdat align 2 {
  %3 = alloca ptr, align 8
  %4 = alloca ptr, align 8
  store ptr %0, ptr %3, align 8
  store ptr %1, ptr %4, align 8
  ret void
}

; Function Attrs: mustprogress nounwind uwtable
define linkonce_odr hidden noundef ptr @_ZN4llvm25SmallVectorTemplateCommonINS_13SplitAnalysis9BlockInfoEvE3endEv(ptr noundef nonnull align 8 dereferenceable(16) %0) #1 comdat align 2 {
  %2 = alloca ptr, align 8
  store ptr %0, ptr %2, align 8
  %3 = load ptr, ptr %2, align 8
  %4 = call noundef ptr @_ZN4llvm25SmallVectorTemplateCommonINS_13SplitAnalysis9BlockInfoEvE5beginEv(ptr noundef nonnull align 8 dereferenceable(16) %3)
  %5 = call noundef i64 @_ZNK4llvm15SmallVectorBaseIjE4sizeEv(ptr noundef nonnull align 8 dereferenceable(16) %3)
  %6 = getelementptr inbounds %"struct.llvm::SplitAnalysis::BlockInfo", ptr %4, i64 %5
  ret ptr %6
}

; Function Attrs: mustprogress nounwind uwtable
define linkonce_odr hidden noundef ptr @_ZN4llvm25SmallVectorTemplateCommonINS_13SplitAnalysis9BlockInfoEvE5beginEv(ptr noundef nonnull align 8 dereferenceable(16) %0) #1 comdat align 2 {
  %2 = alloca ptr, align 8
  store ptr %0, ptr %2, align 8
  %3 = load ptr, ptr %2, align 8
  %4 = getelementptr inbounds nuw %"class.llvm::SmallVectorBase", ptr %3, i32 0, i32 0
  %5 = load ptr, ptr %4, align 8
  ret ptr %5
}

; Function Attrs: mustprogress nounwind uwtable
define linkonce_odr hidden void @_ZN4llvm23SmallVectorTemplateBaseINS_9SlotIndexELb1EE13destroy_rangeEPS1_S3_(ptr noundef %0, ptr noundef %1) #1 comdat align 2 {
  %3 = alloca ptr, align 8
  %4 = alloca ptr, align 8
  store ptr %0, ptr %3, align 8
  store ptr %1, ptr %4, align 8
  ret void
}

; Function Attrs: mustprogress nounwind uwtable
define linkonce_odr hidden noundef ptr @_ZN4llvm25SmallVectorTemplateCommonINS_9SlotIndexEvE3endEv(ptr noundef nonnull align 8 dereferenceable(16) %0) #1 comdat align 2 {
  %2 = alloca ptr, align 8
  store ptr %0, ptr %2, align 8
  %3 = load ptr, ptr %2, align 8
  %4 = call noundef ptr @_ZN4llvm25SmallVectorTemplateCommonINS_9SlotIndexEvE5beginEv(ptr noundef nonnull align 8 dereferenceable(16) %3)
  %5 = call noundef i64 @_ZNK4llvm15SmallVectorBaseIjE4sizeEv(ptr noundef nonnull align 8 dereferenceable(16) %3)
  %6 = getelementptr inbounds %"class.llvm::SlotIndex", ptr %4, i64 %5
  ret ptr %6
}

; Function Attrs: mustprogress nounwind uwtable
define linkonce_odr hidden noundef ptr @_ZN4llvm25SmallVectorTemplateCommonINS_9SlotIndexEvE5beginEv(ptr noundef nonnull align 8 dereferenceable(16) %0) #1 comdat align 2 {
  %2 = alloca ptr, align 8
  store ptr %0, ptr %2, align 8
  %3 = load ptr, ptr %2, align 8
  %4 = getelementptr inbounds nuw %"class.llvm::SmallVectorBase", ptr %3, i32 0, i32 0
  %5 = load ptr, ptr %4, align 8
  ret ptr %5
}

; Function Attrs: mustprogress nounwind uwtable
define linkonce_odr hidden void @_ZN4llvm9BitVector5clearEv(ptr noundef nonnull align 8 dereferenceable(68) %0) #1 comdat align 2 {
  %2 = alloca ptr, align 8
  store ptr %0, ptr %2, align 8
  %3 = load ptr, ptr %2, align 8
  %4 = getelementptr inbounds nuw %"class.llvm::BitVector", ptr %3, i32 0, i32 1
  store i32 0, ptr %4, align 8
  %5 = getelementptr inbounds nuw %"class.llvm::BitVector", ptr %3, i32 0, i32 0
  call void @_ZN4llvm15SmallVectorImplImE5clearEv(ptr noundef nonnull align 8 dereferenceable(16) %5)
  ret void
}

; Function Attrs: mustprogress nounwind uwtable
define linkonce_odr hidden void @_ZN4llvm15SmallVectorImplINS_13SplitAnalysis9BlockInfoEE5clearEv(ptr noundef nonnull align 8 dereferenceable(16) %0) #1 comdat align 2 {
  %2 = alloca ptr, align 8
  store ptr %0, ptr %2, align 8
  %3 = load ptr, ptr %2, align 8
  %4 = call noundef ptr @_ZN4llvm25SmallVectorTemplateCommonINS_13SplitAnalysis9BlockInfoEvE5beginEv(ptr noundef nonnull align 8 dereferenceable(16) %3)
  %5 = call noundef ptr @_ZN4llvm25SmallVectorTemplateCommonINS_13SplitAnalysis9BlockInfoEvE3endEv(ptr noundef nonnull align 8 dereferenceable(16) %3)
  call void @_ZN4llvm23SmallVectorTemplateBaseINS_13SplitAnalysis9BlockInfoELb1EE13destroy_rangeEPS2_S4_(ptr noundef %4, ptr noundef %5)
  %6 = getelementptr inbounds nuw %"class.llvm::SmallVectorBase", ptr %3, i32 0, i32 1
  store i32 0, ptr %6, align 8
  ret void
}

; Function Attrs: mustprogress nounwind uwtable
define linkonce_odr hidden void @_ZN4llvm15SmallVectorImplINS_9SlotIndexEE5clearEv(ptr noundef nonnull align 8 dereferenceable(16) %0) #1 comdat align 2 {
  %2 = alloca ptr, align 8
  store ptr %0, ptr %2, align 8
  %3 = load ptr, ptr %2, align 8
  %4 = call noundef ptr @_ZN4llvm25SmallVectorTemplateCommonINS_9SlotIndexEvE5beginEv(ptr noundef nonnull align 8 dereferenceable(16) %3)
  %5 = call noundef ptr @_ZN4llvm25SmallVectorTemplateCommonINS_9SlotIndexEvE3endEv(ptr noundef nonnull align 8 dereferenceable(16) %3)
  call void @_ZN4llvm23SmallVectorTemplateBaseINS_9SlotIndexELb1EE13destroy_rangeEPS1_S3_(ptr noundef %4, ptr noundef %5)
  %6 = getelementptr inbounds nuw %"class.llvm::SmallVectorBase", ptr %3, i32 0, i32 1
  store i32 0, ptr %6, align 8
  ret void
}

; Function Attrs: mustprogress nounwind uwtable
define hidden void @_ZN4llvm13SplitAnalysis5clearEv(ptr noundef nonnull align 8 dereferenceable(701) %0) #1 align 2 {
  %2 = alloca ptr, align 8
  store ptr %0, ptr %2, align 8
  %3 = load ptr, ptr %2, align 8
  %4 = getelementptr inbounds nuw %"class.llvm::SplitAnalysis", ptr %3, i32 0, i32 7
  call void @_ZN4llvm15SmallVectorImplINS_9SlotIndexEE5clearEv(ptr noundef nonnull align 8 dereferenceable(16) %4)
  %5 = getelementptr inbounds nuw %"class.llvm::SplitAnalysis", ptr %3, i32 0, i32 8
  call void @_ZN4llvm15SmallVectorImplINS_13SplitAnalysis9BlockInfoEE5clearEv(ptr noundef nonnull align 8 dereferenceable(16) %5)
  %6 = getelementptr inbounds nuw %"class.llvm::SplitAnalysis", ptr %3, i32 0, i32 11
  call void @_ZN4llvm9BitVector5clearEv(ptr noundef nonnull align 8 dereferenceable(68) %6)
  %7 = getelementptr inbounds nuw %"class.llvm::SplitAnalysis", ptr %3, i32 0, i32 5
  store ptr null, ptr %7, align 8
  ret void
}