; Function Attrs: mustprogress nounwind uwtable
define hidden void @_ZN4llvm13SplitAnalysis5clearEv(ptr noundef nonnull align 8 dereferenceable(701) %0) local_unnamed_addr #0 align 2 {
  %2 = getelementptr inbounds nuw i8, ptr %0, i64 200
  %3 = tail call noundef i64 @_ZNK4llvm15SmallVectorBaseIjE4sizeEv(ptr noundef nonnull align 8 dereferenceable(16) %2) #17
  %4 = getelementptr inbounds nuw i8, ptr %0, i64 208
  store i32 0, ptr %4, align 8
  %5 = getelementptr inbounds nuw i8, ptr %0, i64 280
  %6 = tail call noundef i64 @_ZNK4llvm15SmallVectorBaseIjE4sizeEv(ptr noundef nonnull align 8 dereferenceable(16) %5) #17
  %7 = getelementptr inbounds nuw i8, ptr %0, i64 288
  store i32 0, ptr %7, align 8
  %8 = getelementptr inbounds nuw i8, ptr %0, i64 624
  %9 = getelementptr inbounds nuw i8, ptr %0, i64 688
  store i32 0, ptr %9, align 8
  %10 = tail call noundef i64 @_ZNK4llvm15SmallVectorBaseIjE4sizeEv(ptr noundef nonnull align 8 dereferenceable(68) %8) #17
  %11 = getelementptr inbounds nuw i8, ptr %0, i64 632
  store i32 0, ptr %11, align 8
  %12 = getelementptr inbounds nuw i8, ptr %0, i64 40
  store ptr null, ptr %12, align 8
  ret void
}